target datalayout = "e-m:e-p270:32:32-p271:32:32-p272:64:64-i64:64-i128:128-f80:128-n8:16:32:64-S128"
target triple = "x86_64-pc-linux-gnu"

%struct.pointf_s = type { double, double }
%struct.boxf = type { %struct.pointf_s, %struct.pointf_s }

; Function Attrs: nounwind uwtable
define void @arrow_bb(ptr dead_on_unwind noalias writable sret(%struct.boxf) align 8 %0, double %1, double %2, double %3, double %4, double noundef %5) #0 {
  %7 = alloca %struct.pointf_s, align 8
  %8 = alloca %struct.pointf_s, align 8
  %9 = alloca double, align 8
  %10 = alloca double, align 8
  %11 = alloca double, align 8
  %12 = alloca double, align 8
  %13 = alloca double, align 8
  %14 = alloca double, align 8
  %15 = alloca double, align 8
  %16 = alloca double, align 8
  %17 = alloca double, align 8
  %18 = alloca double, align 8
  %19 = alloca double, align 8
  %20 = alloca double, align 8
  %21 = getelementptr inbounds nuw { double, double }, ptr %7, i32 0, i32 0
  store double %1, ptr %21, align 8
  %22 = getelementptr inbounds nuw { double, double }, ptr %7, i32 0, i32 1
  store double %2, ptr %22, align 8
  %23 = getelementptr inbounds nuw { double, double }, ptr %8, i32 0, i32 0
  store double %3, ptr %23, align 8
  %24 = getelementptr inbounds nuw { double, double }, ptr %8, i32 0, i32 1
  store double %4, ptr %24, align 8
  store double %5, ptr %9, align 8, !tbaa !53
  call void @llvm.lifetime.start.p0(i64 8, ptr %10) #9
  call void @llvm.lifetime.start.p0(i64 8, ptr %11) #9
  call void @llvm.lifetime.start.p0(i64 8, ptr %12) #9
  call void @llvm.lifetime.start.p0(i64 8, ptr %13) #9
  call void @llvm.lifetime.start.p0(i64 8, ptr %14) #9
  call void @llvm.lifetime.start.p0(i64 8, ptr %15) #9
  call void @llvm.lifetime.start.p0(i64 8, ptr %16) #9
  call void @llvm.lifetime.start.p0(i64 8, ptr %17) #9
  call void @llvm.lifetime.start.p0(i64 8, ptr %18) #9
  call void @llvm.lifetime.start.p0(i64 8, ptr %19) #9
  call void @llvm.lifetime.start.p0(i64 8, ptr %20) #9
  %25 = getelementptr inbounds nuw %struct.pointf_s, ptr %7, i32 0, i32 0
  %26 = load double, ptr %25, align 8, !tbaa !57
  %27 = getelementptr inbounds nuw %struct.pointf_s, ptr %8, i32 0, i32 0
  %28 = load double, ptr %27, align 8, !tbaa !57
  %29 = fsub double %28, %26
  store double %29, ptr %27, align 8, !tbaa !57
  %30 = getelementptr inbounds nuw %struct.pointf_s, ptr %7, i32 0, i32 1
  %31 = load double, ptr %30, align 8, !tbaa !58
  %32 = getelementptr inbounds nuw %struct.pointf_s, ptr %8, i32 0, i32 1
  %33 = load double, ptr %32, align 8, !tbaa !58
  %34 = fsub double %33, %31
  store double %34, ptr %32, align 8, !tbaa !58
  %35 = load double, ptr %9, align 8, !tbaa !53
  %36 = fmul double 1.000000e+01, %35
  %37 = getelementptr inbounds nuw %struct.pointf_s, ptr %8, i32 0, i32 0
  %38 = load double, ptr %37, align 8, !tbaa !57
  %39 = getelementptr inbounds nuw %struct.pointf_s, ptr %8, i32 0, i32 1
  %40 = load double, ptr %39, align 8, !tbaa !58
  %41 = call double @hypot(double noundef %38, double noundef %40) #9, !tbaa !10
  %42 = fadd double %41, 1.000000e-04
  %43 = fdiv double %36, %42
  store double %43, ptr %10, align 8, !tbaa !53
  %44 = getelementptr inbounds nuw %struct.pointf_s, ptr %8, i32 0, i32 0
  %45 = load double, ptr %44, align 8, !tbaa !57
  %46 = fcmp oge double %45, 0.000000e+00
  %47 = select i1 %46, double 1.000000e-04, double -1.000000e-04
  %48 = getelementptr inbounds nuw %struct.pointf_s, ptr %8, i32 0, i32 0
  %49 = load double, ptr %48, align 8, !tbaa !57
  %50 = fadd double %49, %47
  store double %50, ptr %48, align 8, !tbaa !57
  %51 = getelementptr inbounds nuw %struct.pointf_s, ptr %8, i32 0, i32 1
  %52 = load double, ptr %51, align 8, !tbaa !58
  %53 = fcmp oge double %52, 0.000000e+00
  %54 = select i1 %53, double 1.000000e-04, double -1.000000e-04
  %55 = getelementptr inbounds nuw %struct.pointf_s, ptr %8, i32 0, i32 1
  %56 = load double, ptr %55, align 8, !tbaa !58
  %57 = fadd double %56, %54
  store double %57, ptr %55, align 8, !tbaa !58
  %58 = load double, ptr %10, align 8, !tbaa !53
  %59 = getelementptr inbounds nuw %struct.pointf_s, ptr %8, i32 0, i32 0
  %60 = load double, ptr %59, align 8, !tbaa !57
  %61 = fmul double %60, %58
  store double %61, ptr %59, align 8, !tbaa !57
  %62 = load double, ptr %10, align 8, !tbaa !53
  %63 = getelementptr inbounds nuw %struct.pointf_s, ptr %8, i32 0, i32 1
  %64 = load double, ptr %63, align 8, !tbaa !58
  %65 = fmul double %64, %62
  store double %65, ptr %63, align 8, !tbaa !58
  %66 = getelementptr inbounds nuw %struct.pointf_s, ptr %8, i32 0, i32 0
  %67 = load double, ptr %66, align 8, !tbaa !57
  %68 = fdiv double %67, 2.000000e+00
  store double %68, ptr %19, align 8, !tbaa !53
  %69 = getelementptr inbounds nuw %struct.pointf_s, ptr %8, i32 0, i32 1
  %70 = load double, ptr %69, align 8, !tbaa !58
  %71 = fdiv double %70, 2.000000e+00
  store double %71, ptr %20, align 8, !tbaa !53
  %72 = getelementptr inbounds nuw %struct.pointf_s, ptr %7, i32 0, i32 0
  %73 = load double, ptr %72, align 8, !tbaa !57
  %74 = load double, ptr %20, align 8, !tbaa !53
  %75 = fsub double %73, %74
  store double %75, ptr %11, align 8, !tbaa !53
  %76 = getelementptr inbounds nuw %struct.pointf_s, ptr %7, i32 0, i32 1
  %77 = load double, ptr %76, align 8, !tbaa !58
  %78 = load double, ptr %19, align 8, !tbaa !53
  %79 = fsub double %77, %78
  store double %79, ptr %12, align 8, !tbaa !53
  %80 = getelementptr inbounds nuw %struct.pointf_s, ptr %7, i32 0, i32 0
  %81 = load double, ptr %80, align 8, !tbaa !57
  %82 = load double, ptr %20, align 8, !tbaa !53
  %83 = fadd double %81, %82
  store double %83, ptr %13, align 8, !tbaa !53
  %84 = getelementptr inbounds nuw %struct.pointf_s, ptr %7, i32 0, i32 1
  %85 = load double, ptr %84, align 8, !tbaa !58
  %86 = load double, ptr %19, align 8, !tbaa !53
  %87 = fadd double %85, %86
  store double %87, ptr %14, align 8, !tbaa !53
  %88 = load double, ptr %11, align 8, !tbaa !53
  %89 = getelementptr inbounds nuw %struct.pointf_s, ptr %8, i32 0, i32 0
  %90 = load double, ptr %89, align 8, !tbaa !57
  %91 = fadd double %88, %90
  store double %91, ptr %15, align 8, !tbaa !53
  %92 = load double, ptr %12, align 8, !tbaa !53
  %93 = getelementptr inbounds nuw %struct.pointf_s, ptr %8, i32 0, i32 1
  %94 = load double, ptr %93, align 8, !tbaa !58
  %95 = fadd double %92, %94
  store double %95, ptr %16, align 8, !tbaa !53
  %96 = load double, ptr %13, align 8, !tbaa !53
  %97 = getelementptr inbounds nuw %struct.pointf_s, ptr %8, i32 0, i32 0
  %98 = load double, ptr %97, align 8, !tbaa !57
  %99 = fadd double %96, %98
  store double %99, ptr %17, align 8, !tbaa !53
  %100 = load double, ptr %14, align 8, !tbaa !53
  %101 = getelementptr inbounds nuw %struct.pointf_s, ptr %8, i32 0, i32 1
  %102 = load double, ptr %101, align 8, !tbaa !58
  %103 = fadd double %100, %102
  store double %103, ptr %18, align 8, !tbaa !53
  %104 = load double, ptr %11, align 8, !tbaa !53
  %105 = load double, ptr %13, align 8, !tbaa !53
  %106 = load double, ptr %15, align 8, !tbaa !53
  %107 = load double, ptr %17, align 8, !tbaa !53
  %108 = call double @llvm.maxnum.f64(double %106, double %107)
  %109 = call double @llvm.maxnum.f64(double %105, double %108)
  %110 = call double @llvm.maxnum.f64(double %104, double %109)
  %111 = getelementptr inbounds nuw %struct.boxf, ptr %0, i32 0, i32 1
  %112 = getelementptr inbounds nuw %struct.pointf_s, ptr %111, i32 0, i32 0
  store double %110, ptr %112, align 8, !tbaa !68
  %113 = load double, ptr %12, align 8, !tbaa !53
  %114 = load double, ptr %14, align 8, !tbaa !53
  %115 = load double, ptr %16, align 8, !tbaa !53
  %116 = load double, ptr %18, align 8, !tbaa !53
  %117 = call double @llvm.maxnum.f64(double %115, double %116)
  %118 = call double @llvm.maxnum.f64(double %114, double %117)
  %119 = call double @llvm.maxnum.f64(double %113, double %118)
  %120 = getelementptr inbounds nuw %struct.boxf, ptr %0, i32 0, i32 1
  %121 = getelementptr inbounds nuw %struct.pointf_s, ptr %120, i32 0, i32 1
  store double %119, ptr %121, align 8, !tbaa !70
  %122 = load double, ptr %11, align 8, !tbaa !53
  %123 = load double, ptr %13, align 8, !tbaa !53
  %124 = load double, ptr %15, align 8, !tbaa !53
  %125 = load double, ptr %17, align 8, !tbaa !53
  %126 = call double @llvm.minnum.f64(double %124, double %125)
  %127 = call double @llvm.minnum.f64(double %123, double %126)
  %128 = call double @llvm.minnum.f64(double %122, double %127)
  %129 = getelementptr inbounds nuw %struct.boxf, ptr %0, i32 0, i32 0
  %130 = getelementptr inbounds nuw %struct.pointf_s, ptr %129, i32 0, i32 0
  store double %128, ptr %130, align 8, !tbaa !71
  %131 = load double, ptr %12, align 8, !tbaa !53
  %132 = load double, ptr %14, align 8, !tbaa !53
  %133 = load double, ptr %16, align 8, !tbaa !53
  %134 = load double, ptr %18, align 8, !tbaa !53
  %135 = call double @llvm.minnum.f64(double %133, double %134)
  %136 = call double @llvm.minnum.f64(double %132, double %135)
  %137 = call double @llvm.minnum.f64(double %131, double %136)
  %138 = getelementptr inbounds nuw %struct.boxf, ptr %0, i32 0, i32 0
  %139 = getelementptr inbounds nuw %struct.pointf_s, ptr %138, i32 0, i32 1
  store double %137, ptr %139, align 8, !tbaa !72
  call void @llvm.lifetime.end.p0(i64 8, ptr %20) #9
  call void @llvm.lifetime.end.p0(i64 8, ptr %19) #9
  call void @llvm.lifetime.end.p0(i64 8, ptr %18) #9
  call void @llvm.lifetime.end.p0(i64 8, ptr %17) #9
  call void @llvm.lifetime.end.p0(i64 8, ptr %16) #9
  call void @llvm.lifetime.end.p0(i64 8, ptr %15) #9
  call void @llvm.lifetime.end.p0(i64 8, ptr %14) #9
  call void @llvm.lifetime.end.p0(i64 8, ptr %13) #9
  call void @llvm.lifetime.end.p0(i64 8, ptr %12) #9
  call void @llvm.lifetime.end.p0(i64 8, ptr %11) #9
  call void @llvm.lifetime.end.p0(i64 8, ptr %10) #9
  ret void
}