; Function Attrs: mustprogress nofree nounwind willreturn memory(write) uwtable
define void @arrow_bb(ptr dead_on_unwind noalias writable writeonly sret(%struct.boxf) align 8 captures(none) initializes((0, 32)) %0, double %1, double %2, double %3, double %4, double noundef %5) local_unnamed_addr #6 {
  %7 = fsub double %3, %1
  %8 = fsub double %4, %2
  %9 = fmul double %5, 1.000000e+01
  %10 = tail call double @hypot(double noundef %7, double noundef %8) #12, !tbaa !3
  %11 = fadd double %10, 1.000000e-04
  %12 = fdiv double %9, %11
  %13 = fcmp oge double %7, 0.000000e+00
  %14 = select i1 %13, double 1.000000e-04, double -1.000000e-04
  %15 = fadd double %7, %14
  %16 = fcmp oge double %8, 0.000000e+00
  %17 = select i1 %16, double 1.000000e-04, double -1.000000e-04
  %18 = fadd double %8, %17
  %19 = fmul double %15, %12
  %20 = fmul double %18, %12
  %21 = fmul double %19, 5.000000e-01
  %22 = fmul double %20, 5.000000e-01
  %23 = fsub double %1, %22
  %24 = fsub double %2, %21
  %25 = fadd double %1, %22
  %26 = fadd double %2, %21
  %27 = fadd double %19, %23
  %28 = fadd double %20, %24
  %29 = fadd double %19, %25
  %30 = fadd double %20, %26
  %31 = tail call double @llvm.maxnum.f64(double %27, double %29)
  %32 = tail call double @llvm.maxnum.f64(double %25, double %31)
  %33 = tail call double @llvm.maxnum.f64(double %23, double %32)
  %34 = getelementptr inbounds nuw i8, ptr %0, i64 16
  store double %33, ptr %34, align 8, !tbaa !62
  %35 = tail call double @llvm.maxnum.f64(double %28, double %30)
  %36 = tail call double @llvm.maxnum.f64(double %26, double %35)
  %37 = tail call double @llvm.maxnum.f64(double %24, double %36)
  %38 = getelementptr inbounds nuw i8, ptr %0, i64 24
  store double %37, ptr %38, align 8, !tbaa !64
  %39 = tail call double @llvm.minnum.f64(double %27, double %29)
  %40 = tail call double @llvm.minnum.f64(double %25, double %39)
  %41 = tail call double @llvm.minnum.f64(double %23, double %40)
  store double %41, ptr %0, align 8, !tbaa !65
  %42 = tail call double @llvm.minnum.f64(double %28, double %30)
  %43 = tail call double @llvm.minnum.f64(double %26, double %42)
  %44 = tail call double @llvm.minnum.f64(double %24, double %43)
  %45 = getelementptr inbounds nuw i8, ptr %0, i64 8
  store double %44, ptr %45, align 8, !tbaa !66
  ret void
}